target datalayout = "e-m:e-p270:32:32-p271:32:32-p272:64:64-i64:64-i128:128-f80:128-n8:16:32:64-S128"
target triple = "x86_64-pc-linux-gnu"

%struct.Type_ = type { i32, ptr, ptr, ptr, %union.anon, ptr, ptr, %union.anon.1 }
%union.anon = type { ptr }
%union.anon.1 = type { %struct.TypeFunction }
%struct.TypeFunction = type { ptr, ptr, ptr }
%struct.GlobalContext = type { %struct.HTable, ptr, ptr, ptr, ptr, ptr, ptr, ptr, ptr, i8, i32, i32, i32, ptr, ptr, %struct.HTable, %struct.HTable, %struct.Module_, %struct.DeclTable, %struct.DeclTable, %struct.Path_, ptr, ptr, ptr, ptr, ptr, ptr, ptr, [65536 x ptr], ptr, ptr, ptr }
%struct.HTable = type { i32, ptr }
%struct.Module_ = type { ptr, ptr, ptr, i16, i32, ptr, %struct.HTable, ptr, ptr, ptr, ptr, ptr, ptr, ptr, ptr, ptr }
%struct.DeclTable = type { i32, i32, i32, ptr }
%struct.Path_ = type { %union.SourceSpan, ptr, i32 }
%union.SourceSpan = type { i64 }
%struct.Decl_ = type { ptr, ptr, %union.SourceSpan, i64, %union.anon.3, i32, %union.anon.4, i64, ptr, ptr, ptr, %union.anon.5 }
%union.anon.3 = type { ptr }
%union.anon.4 = type { i16 }
%union.anon.5 = type { %struct.FuncDecl }
%struct.FuncDecl = type { i32, [4 x i8], %struct.Signature_, i32, i32, %union.anon.12 }
%struct.Signature_ = type <{ %struct.CalleeAttributes, i16, i8, i32, i32, [4 x i8], ptr }>
%struct.CalleeAttributes = type { i8 }
%union.anon.12 = type { %struct.anon.13 }
%struct.anon.13 = type { i16, %union.anon.14 }
%union.anon.14 = type { ptr }
%struct.TypeArray = type { ptr, i32 }

@.str = private unnamed_addr constant [36 x i8] c"FATAL ERROR %s -> in %s @ in %s:%d \00", align 1
@.str.2 = private unnamed_addr constant [106 x i8] c"generated/home/dtcxzyw/WorkSpace/Projects/compilers/llvm-opt-benchmark/bench/c3c/c3c/src/compiler/types.c\00", align 1
@.str.5 = private unnamed_addr constant [9 x i8] c"poisoned\00", align 1
@.str.6 = private unnamed_addr constant [4 x i8] c"fn \00", align 1
@.str.7 = private unnamed_addr constant [8 x i8] c"%s[<*>]\00", align 1
@.str.8 = private unnamed_addr constant [11 x i8] c"%s[<%llu>]\00", align 1
@.str.9 = private unnamed_addr constant [9 x i8] c"typeinfo\00", align 1
@.str.10 = private unnamed_addr constant [7 x i8] c"typeid\00", align 1
@.str.11 = private unnamed_addr constant [4 x i8] c"%s*\00", align 1
@.str.12 = private unnamed_addr constant [6 x i8] c"void!\00", align 1
@.str.13 = private unnamed_addr constant [4 x i8] c"%s!\00", align 1
@.str.14 = private unnamed_addr constant [9 x i8] c"%s[%llu]\00", align 1
@.str.15 = private unnamed_addr constant [6 x i8] c"%s[*]\00", align 1
@.str.16 = private unnamed_addr constant [5 x i8] c"%s[]\00", align 1
@.str.17 = private unnamed_addr constant [22 x i8] c"Should be unreachable\00", align 1
@__func__.type_to_error_string = private unnamed_addr constant [21 x i8] c"type_to_error_string\00", align 1
@global_context = external global %struct.GlobalContext, align 8

; Function Attrs: nounwind uwtable
define dso_local ptr @type_to_error_string(ptr noundef %0) #0 {
  %2 = alloca ptr, align 8
  %3 = alloca ptr, align 8
  %4 = alloca ptr, align 8
  %5 = alloca ptr, align 8
  %6 = alloca ptr, align 8
  store ptr %0, ptr %5, align 8
  %7 = load ptr, ptr %5, align 8
  %8 = getelementptr inbounds %struct.Type_, ptr %7, i32 0, i32 0
  %9 = load i32, ptr %8, align 8
  switch i32 %9, label %157 [
    i32 0, label %10
    i32 1, label %11
    i32 2, label %11
    i32 3, label %11
    i32 4, label %11
    i32 5, label %11
    i32 6, label %11
    i32 7, label %11
    i32 8, label %11
    i32 9, label %11
    i32 10, label %11
    i32 11, label %11
    i32 12, label %11
    i32 14, label %11
    i32 13, label %11
    i32 15, label %11
    i32 16, label %11
    i32 17, label %11
    i32 21, label %11
    i32 39, label %11
    i32 18, label %11
    i32 43, label %11
    i32 41, label %11
    i32 19, label %11
    i32 24, label %15
    i32 30, label %15
    i32 31, label %15
    i32 26, label %15
    i32 27, label %15
    i32 32, label %15
    i32 29, label %15
    i32 28, label %15
    i32 25, label %64
    i32 38, label %80
    i32 37, label %87
    i32 42, label %99
    i32 22, label %100
    i32 20, label %101
    i32 23, label %101
    i32 40, label %119
    i32 33, label %131
    i32 36, label %143
    i32 35, label %143
    i32 34, label %150
  ]

10:                                               ; preds = %1
  store ptr @.str.5, ptr %4, align 8
  br label %159

11:                                               ; preds = %1, %1, %1, %1, %1, %1, %1, %1, %1, %1, %1, %1, %1, %1, %1, %1, %1, %1, %1, %1, %1, %1, %1
  %12 = load ptr, ptr %5, align 8
  %13 = getelementptr inbounds %struct.Type_, ptr %12, i32 0, i32 2
  %14 = load ptr, ptr %13, align 8
  store ptr %14, ptr %4, align 8
  br label %159

15:                                               ; preds = %1, %1, %1, %1, %1, %1, %1, %1
  %16 = load ptr, ptr %5, align 8
  %17 = getelementptr inbounds %struct.Type_, ptr %16, i32 0, i32 7
  %18 = load ptr, ptr %17, align 8
  store ptr %18, ptr %6, align 8
  %19 = load ptr, ptr %6, align 8
  %20 = icmp ne ptr %19, null
  br i1 %20, label %21, label %39

21:                                               ; preds = %15
  %22 = load ptr, ptr %6, align 8
  store ptr %22, ptr %2, align 8
  %23 = load ptr, ptr %2, align 8
  %24 = getelementptr inbounds %struct.Decl_, ptr %23, i32 0, i32 8
  %25 = load ptr, ptr %24, align 8
  %26 = icmp ne ptr %25, null
  br i1 %26, label %27, label %32

27:                                               ; preds = %21
  %28 = load ptr, ptr %2, align 8
  %29 = getelementptr inbounds %struct.Decl_, ptr %28, i32 0, i32 8
  %30 = load ptr, ptr %29, align 8
  %31 = load ptr, ptr %30, align 8
  br label %34

32:                                               ; preds = %21
  %33 = load ptr, ptr getelementptr inbounds (%struct.GlobalContext, ptr @global_context, i32 0, i32 1), align 8
  br label %34

34:                                               ; preds = %32, %27
  %35 = phi ptr [ %31, %27 ], [ %33, %32 ]
  %36 = getelementptr inbounds %struct.Module_, ptr %35, i32 0, i32 15
  %37 = load ptr, ptr %36, align 8
  %38 = icmp ne ptr %37, null
  br i1 %38, label %43, label %39

39:                                               ; preds = %34, %15
  %40 = load ptr, ptr %5, align 8
  %41 = getelementptr inbounds %struct.Type_, ptr %40, i32 0, i32 2
  %42 = load ptr, ptr %41, align 8
  store ptr %42, ptr %4, align 8
  br label %159

43:                                               ; preds = %34
  call void @scratch_buffer_clear()
  %44 = load ptr, ptr %6, align 8
  %45 = getelementptr inbounds %struct.Decl_, ptr %44, i32 0, i32 0
  %46 = load ptr, ptr %45, align 8
  call void @scratch_buffer_append(ptr noundef %46)
  %47 = load ptr, ptr %6, align 8
  store ptr %47, ptr %3, align 8
  %48 = load ptr, ptr %3, align 8
  %49 = getelementptr inbounds %struct.Decl_, ptr %48, i32 0, i32 8
  %50 = load ptr, ptr %49, align 8
  %51 = icmp ne ptr %50, null
  br i1 %51, label %52, label %57

52:                                               ; preds = %43
  %53 = load ptr, ptr %3, align 8
  %54 = getelementptr inbounds %struct.Decl_, ptr %53, i32 0, i32 8
  %55 = load ptr, ptr %54, align 8
  %56 = load ptr, ptr %55, align 8
  br label %59

57:                                               ; preds = %43
  %58 = load ptr, ptr getelementptr inbounds (%struct.GlobalContext, ptr @global_context, i32 0, i32 1), align 8
  br label %59

59:                                               ; preds = %57, %52
  %60 = phi ptr [ %56, %52 ], [ %58, %57 ]
  %61 = getelementptr inbounds %struct.Module_, ptr %60, i32 0, i32 15
  %62 = load ptr, ptr %61, align 8
  call void @scratch_buffer_append(ptr noundef %62)
  %63 = call ptr @scratch_buffer_copy()
  store ptr %63, ptr %4, align 8
  br label %159

64:                                               ; preds = %1
  %65 = load ptr, ptr %5, align 8
  %66 = getelementptr inbounds %struct.Type_, ptr %65, i32 0, i32 7
  %67 = getelementptr inbounds %struct.TypeFunction, ptr %66, i32 0, i32 2
  %68 = load ptr, ptr %67, align 8
  %69 = icmp ne ptr %68, null
  br i1 %69, label %74, label %70

70:                                               ; preds = %64
  %71 = load ptr, ptr %5, align 8
  %72 = getelementptr inbounds %struct.Type_, ptr %71, i32 0, i32 2
  %73 = load ptr, ptr %72, align 8
  store ptr %73, ptr %4, align 8
  br label %159

74:                                               ; preds = %64
  call void @scratch_buffer_clear()
  call void @scratch_buffer_append(ptr noundef @.str.6)
  %75 = load ptr, ptr %5, align 8
  %76 = getelementptr inbounds %struct.Type_, ptr %75, i32 0, i32 7
  %77 = getelementptr inbounds %struct.TypeFunction, ptr %76, i32 0, i32 2
  %78 = load ptr, ptr %77, align 8
  call void @type_append_func_to_scratch(ptr noundef %78)
  %79 = call ptr @scratch_buffer_copy()
  store ptr %79, ptr %4, align 8
  br label %159

80:                                               ; preds = %1
  %81 = load ptr, ptr %5, align 8
  %82 = getelementptr inbounds %struct.Type_, ptr %81, i32 0, i32 7
  %83 = getelementptr inbounds %struct.TypeArray, ptr %82, i32 0, i32 0
  %84 = load ptr, ptr %83, align 8
  %85 = call ptr @type_to_error_string(ptr noundef %84)
  %86 = call ptr (ptr, ...) @str_printf(ptr noundef @.str.7, ptr noundef %85)
  store ptr %86, ptr %4, align 8
  br label %159

87:                                               ; preds = %1
  %88 = load ptr, ptr %5, align 8
  %89 = getelementptr inbounds %struct.Type_, ptr %88, i32 0, i32 7
  %90 = getelementptr inbounds %struct.TypeArray, ptr %89, i32 0, i32 0
  %91 = load ptr, ptr %90, align 8
  %92 = call ptr @type_to_error_string(ptr noundef %91)
  %93 = load ptr, ptr %5, align 8
  %94 = getelementptr inbounds %struct.Type_, ptr %93, i32 0, i32 7
  %95 = getelementptr inbounds %struct.TypeArray, ptr %94, i32 0, i32 1
  %96 = load i32, ptr %95, align 8
  %97 = zext i32 %96 to i64
  %98 = call ptr (ptr, ...) @str_printf(ptr noundef @.str.8, ptr noundef %92, i64 noundef %97)
  store ptr %98, ptr %4, align 8
  br label %159

99:                                               ; preds = %1
  store ptr @.str.9, ptr %4, align 8
  br label %159

100:                                              ; preds = %1
  store ptr @.str.10, ptr %4, align 8
  br label %159

101:                                              ; preds = %1, %1
  %102 = load ptr, ptr %5, align 8
  %103 = getelementptr inbounds %struct.Type_, ptr %102, i32 0, i32 7
  %104 = load ptr, ptr %103, align 8
  %105 = getelementptr inbounds %struct.Type_, ptr %104, i32 0, i32 0
  %106 = load i32, ptr %105, align 8
  %107 = icmp eq i32 %106, 25
  br i1 %107, label %108, label %113

108:                                              ; preds = %101
  %109 = load ptr, ptr %5, align 8
  %110 = getelementptr inbounds %struct.Type_, ptr %109, i32 0, i32 7
  %111 = load ptr, ptr %110, align 8
  %112 = call ptr @type_to_error_string(ptr noundef %111)
  store ptr %112, ptr %4, align 8
  br label %159

113:                                              ; preds = %101
  %114 = load ptr, ptr %5, align 8
  %115 = getelementptr inbounds %struct.Type_, ptr %114, i32 0, i32 7
  %116 = load ptr, ptr %115, align 8
  %117 = call ptr @type_to_error_string(ptr noundef %116)
  %118 = call ptr (ptr, ...) @str_printf(ptr noundef @.str.11, ptr noundef %117)
  store ptr %118, ptr %4, align 8
  br label %159

119:                                              ; preds = %1
  %120 = load ptr, ptr %5, align 8
  %121 = getelementptr inbounds %struct.Type_, ptr %120, i32 0, i32 7
  %122 = load ptr, ptr %121, align 8
  %123 = icmp ne ptr %122, null
  br i1 %123, label %125, label %124

124:                                              ; preds = %119
  store ptr @.str.12, ptr %4, align 8
  br label %159

125:                                              ; preds = %119
  %126 = load ptr, ptr %5, align 8
  %127 = getelementptr inbounds %struct.Type_, ptr %126, i32 0, i32 7
  %128 = load ptr, ptr %127, align 8
  %129 = call ptr @type_to_error_string(ptr noundef %128)
  %130 = call ptr (ptr, ...) @str_printf(ptr noundef @.str.13, ptr noundef %129)
  store ptr %130, ptr %4, align 8
  br label %159

131:                                              ; preds = %1
  %132 = load ptr, ptr %5, align 8
  %133 = getelementptr inbounds %struct.Type_, ptr %132, i32 0, i32 7
  %134 = getelementptr inbounds %struct.TypeArray, ptr %133, i32 0, i32 0
  %135 = load ptr, ptr %134, align 8
  %136 = call ptr @type_to_error_string(ptr noundef %135)
  %137 = load ptr, ptr %5, align 8
  %138 = getelementptr inbounds %struct.Type_, ptr %137, i32 0, i32 7
  %139 = getelementptr inbounds %struct.TypeArray, ptr %138, i32 0, i32 1
  %140 = load i32, ptr %139, align 8
  %141 = zext i32 %140 to i64
  %142 = call ptr (ptr, ...) @str_printf(ptr noundef @.str.14, ptr noundef %136, i64 noundef %141)
  store ptr %142, ptr %4, align 8
  br label %159

143:                                              ; preds = %1, %1
  %144 = load ptr, ptr %5, align 8
  %145 = getelementptr inbounds %struct.Type_, ptr %144, i32 0, i32 7
  %146 = getelementptr inbounds %struct.TypeArray, ptr %145, i32 0, i32 0
  %147 = load ptr, ptr %146, align 8
  %148 = call ptr @type_to_error_string(ptr noundef %147)
  %149 = call ptr (ptr, ...) @str_printf(ptr noundef @.str.15, ptr noundef %148)
  store ptr %149, ptr %4, align 8
  br label %159

150:                                              ; preds = %1
  %151 = load ptr, ptr %5, align 8
  %152 = getelementptr inbounds %struct.Type_, ptr %151, i32 0, i32 7
  %153 = getelementptr inbounds %struct.TypeArray, ptr %152, i32 0, i32 0
  %154 = load ptr, ptr %153, align 8
  %155 = call ptr @type_to_error_string(ptr noundef %154)
  %156 = call ptr (ptr, ...) @str_printf(ptr noundef @.str.16, ptr noundef %155)
  store ptr %156, ptr %4, align 8
  br label %159

157:                                              ; preds = %1
  br label %158

158:                                              ; preds = %157
  call void (ptr, ...) @error_exit(ptr noundef @.str, ptr noundef @.str.17, ptr noundef @__func__.type_to_error_string, ptr noundef @.str.2, i32 noundef 267) #7
  unreachable

159:                                              ; preds = %150, %143, %131, %125, %124, %113, %108, %100, %99, %87, %80, %74, %70, %59, %39, %11, %10
  %160 = load ptr, ptr %4, align 8
  ret ptr %160
}