; Function Attrs: nounwind uwtable
define dso_local ptr @type_to_error_string(ptr nocapture noundef readonly %0) local_unnamed_addr #0 {
  %.pre = load i32, ptr %0, align 8
  br label %tailrecurse

tailrecurse:                                      ; preds = %49, %1
  %2 = phi i32 [ %.pre, %1 ], [ 25, %49 ]
  %.tr = phi ptr [ %0, %1 ], [ %51, %49 ]
  switch i32 %2, label %81 [
    i32 0, label %common.ret117
    i32 1, label %3
    i32 2, label %3
    i32 3, label %3
    i32 4, label %3
    i32 5, label %3
    i32 6, label %3
    i32 7, label %3
    i32 8, label %3
    i32 9, label %3
    i32 10, label %3
    i32 11, label %3
    i32 12, label %3
    i32 14, label %3
    i32 13, label %3
    i32 15, label %3
    i32 16, label %3
    i32 17, label %3
    i32 21, label %3
    i32 39, label %3
    i32 18, label %3
    i32 43, label %3
    i32 41, label %3
    i32 19, label %3
    i32 24, label %6
    i32 30, label %6
    i32 31, label %6
    i32 26, label %6
    i32 27, label %6
    i32 32, label %6
    i32 29, label %6
    i32 28, label %6
    i32 25, label %25
    i32 38, label %34
    i32 37, label %39
    i32 42, label %47
    i32 22, label %48
    i32 20, label %49
    i32 23, label %49
    i32 40, label %57
    i32 33, label %63
    i32 36, label %71
    i32 35, label %71
    i32 34, label %76
  ]

3:                                                ; preds = %tailrecurse, %tailrecurse, %tailrecurse, %tailrecurse, %tailrecurse, %tailrecurse, %tailrecurse, %tailrecurse, %tailrecurse, %tailrecurse, %tailrecurse, %tailrecurse, %tailrecurse, %tailrecurse, %tailrecurse, %tailrecurse, %tailrecurse, %tailrecurse, %tailrecurse, %tailrecurse, %tailrecurse, %tailrecurse, %tailrecurse
  %4 = getelementptr inbounds i8, ptr %.tr, i64 16
  %5 = load ptr, ptr %4, align 8
  br label %common.ret117

6:                                                ; preds = %tailrecurse, %tailrecurse, %tailrecurse, %tailrecurse, %tailrecurse, %tailrecurse, %tailrecurse, %tailrecurse
  %7 = getelementptr inbounds i8, ptr %.tr, i64 56
  %8 = load ptr, ptr %7, align 8
  %.not33 = icmp eq ptr %8, null
  br i1 %.not33, label %15, label %9

9:                                                ; preds = %6
  %10 = getelementptr inbounds i8, ptr %8, i64 56
  %11 = load ptr, ptr %10, align 8
  %.not34 = icmp eq ptr %11, null
  %. = select i1 %.not34, ptr getelementptr inbounds (%struct.GlobalContext, ptr @global_context, i64 0, i32 1), ptr %11
  %12 = load ptr, ptr %., align 8
  %13 = getelementptr inbounds i8, ptr %12, i64 120
  %14 = load ptr, ptr %13, align 8
  %.not35 = icmp eq ptr %14, null
  br i1 %.not35, label %15, label %18

15:                                               ; preds = %9, %6
  %16 = getelementptr inbounds i8, ptr %.tr, i64 16
  %17 = load ptr, ptr %16, align 8
  br label %common.ret117

18:                                               ; preds = %9
  tail call void @scratch_buffer_clear() #14
  %19 = load ptr, ptr %8, align 8
  tail call void @scratch_buffer_append(ptr noundef %19) #14
  %20 = load ptr, ptr %10, align 8
  %.not36 = icmp eq ptr %20, null
  %.38 = select i1 %.not36, ptr getelementptr inbounds (%struct.GlobalContext, ptr @global_context, i64 0, i32 1), ptr %20
  %21 = load ptr, ptr %.38, align 8
  %22 = getelementptr inbounds i8, ptr %21, i64 120
  %23 = load ptr, ptr %22, align 8
  tail call void @scratch_buffer_append(ptr noundef %23) #14
  %24 = tail call ptr @scratch_buffer_copy() #14
  br label %common.ret117

25:                                               ; preds = %tailrecurse
  %26 = getelementptr inbounds i8, ptr %.tr, i64 72
  %27 = load ptr, ptr %26, align 8
  %.not32 = icmp eq ptr %27, null
  br i1 %.not32, label %28, label %31

28:                                               ; preds = %25
  %29 = getelementptr inbounds i8, ptr %.tr, i64 16
  %30 = load ptr, ptr %29, align 8
  br label %common.ret117

31:                                               ; preds = %25
  tail call void @scratch_buffer_clear() #14
  tail call void @scratch_buffer_append(ptr noundef nonnull @.str.6) #14
  %32 = load ptr, ptr %26, align 8
  tail call fastcc void @type_append_func_to_scratch(ptr noundef %32)
  %33 = tail call ptr @scratch_buffer_copy() #14
  br label %common.ret117

common.ret117:                                    ; preds = %57, %48, %47, %31, %28, %18, %15, %3, %tailrecurse, %76, %71, %63, %60, %54, %39, %34
  %common.ret117.op = phi ptr [ %38, %34 ], [ %46, %39 ], [ %56, %54 ], [ %62, %60 ], [ %70, %63 ], [ %75, %71 ], [ %80, %76 ], [ @.str.10, %48 ], [ @.str.9, %47 ], [ %33, %31 ], [ %30, %28 ], [ %24, %18 ], [ %17, %15 ], [ %5, %3 ], [ @.str.12, %57 ], [ @.str.5, %tailrecurse ]
  ret ptr %common.ret117.op

34:                                               ; preds = %tailrecurse
  %35 = getelementptr inbounds i8, ptr %.tr, i64 56
  %36 = load ptr, ptr %35, align 8
  %37 = tail call ptr @type_to_error_string(ptr noundef %36)
  %38 = tail call ptr (ptr, ...) @str_printf(ptr noundef nonnull @.str.7, ptr noundef %37) #14
  br label %common.ret117

39:                                               ; preds = %tailrecurse
  %40 = getelementptr inbounds i8, ptr %.tr, i64 56
  %41 = load ptr, ptr %40, align 8
  %42 = tail call ptr @type_to_error_string(ptr noundef %41)
  %43 = getelementptr inbounds i8, ptr %.tr, i64 64
  %44 = load i32, ptr %43, align 8
  %45 = zext i32 %44 to i64
  %46 = tail call ptr (ptr, ...) @str_printf(ptr noundef nonnull @.str.8, ptr noundef %42, i64 noundef %45) #14
  br label %common.ret117

47:                                               ; preds = %tailrecurse
  br label %common.ret117

48:                                               ; preds = %tailrecurse
  br label %common.ret117

49:                                               ; preds = %tailrecurse, %tailrecurse
  %50 = getelementptr inbounds i8, ptr %.tr, i64 56
  %51 = load ptr, ptr %50, align 8
  %52 = load i32, ptr %51, align 8
  %53 = icmp eq i32 %52, 25
  br i1 %53, label %tailrecurse, label %54

54:                                               ; preds = %49
  %55 = tail call ptr @type_to_error_string(ptr noundef nonnull %51)
  %56 = tail call ptr (ptr, ...) @str_printf(ptr noundef nonnull @.str.11, ptr noundef %55) #14
  br label %common.ret117

57:                                               ; preds = %tailrecurse
  %58 = getelementptr inbounds i8, ptr %.tr, i64 56
  %59 = load ptr, ptr %58, align 8
  %.not = icmp eq ptr %59, null
  br i1 %.not, label %common.ret117, label %60

60:                                               ; preds = %57
  %61 = tail call ptr @type_to_error_string(ptr noundef nonnull %59)
  %62 = tail call ptr (ptr, ...) @str_printf(ptr noundef nonnull @.str.13, ptr noundef %61) #14
  br label %common.ret117

63:                                               ; preds = %tailrecurse
  %64 = getelementptr inbounds i8, ptr %.tr, i64 56
  %65 = load ptr, ptr %64, align 8
  %66 = tail call ptr @type_to_error_string(ptr noundef %65)
  %67 = getelementptr inbounds i8, ptr %.tr, i64 64
  %68 = load i32, ptr %67, align 8
  %69 = zext i32 %68 to i64
  %70 = tail call ptr (ptr, ...) @str_printf(ptr noundef nonnull @.str.14, ptr noundef %66, i64 noundef %69) #14
  br label %common.ret117

71:                                               ; preds = %tailrecurse, %tailrecurse
  %72 = getelementptr inbounds i8, ptr %.tr, i64 56
  %73 = load ptr, ptr %72, align 8
  %74 = tail call ptr @type_to_error_string(ptr noundef %73)
  %75 = tail call ptr (ptr, ...) @str_printf(ptr noundef nonnull @.str.15, ptr noundef %74) #14
  br label %common.ret117

76:                                               ; preds = %tailrecurse
  %77 = getelementptr inbounds i8, ptr %.tr, i64 56
  %78 = load ptr, ptr %77, align 8
  %79 = tail call ptr @type_to_error_string(ptr noundef %78)
  %80 = tail call ptr (ptr, ...) @str_printf(ptr noundef nonnull @.str.16, ptr noundef %79) #14
  br label %common.ret117

81:                                               ; preds = %tailrecurse
  tail call void (ptr, ...) @error_exit(ptr noundef nonnull @.str, ptr noundef nonnull @.str.17, ptr noundef nonnull @__func__.type_to_error_string, ptr noundef nonnull @.str.2, i32 noundef 267) #13
  unreachable
}